ASxxxx Linker V03.00 + NoICE + sdld,  page 1.
Hexadecimal  [32-Bits]

Area                                    Addr        Size        Decimal Bytes (Attributes)
--------------------------------        ----        ----        ------- ----- ------------
CABS2                               00000000    00000080 =         128. bytes (ABS,CON,CODE)

      Value  Global                              Global Defined In Module
      -----  --------------------------------   ------------------------
C:   00000000  l_CABS                          
C:   00000000  l_GSINIT1                       
C:   00000000  l_GSINIT3                       
C:   00000000  l_GSINIT5                       
C:   00000000  l_IABS                          
C:   00000000  l_ISEG                          
C:   00000000  l_PSEG                          
C:   00000000  l_REG_BANK_2                    
C:   00000000  l_REG_BANK_3                    
C:   00000000  l_RSEG                          
C:   00000000  l_RSEG0                         
C:   00000000  l_RSEG1                         
C:   00000000  l_XABS                          
C:   00000000  l_XINIT                         
C:   00000000  l_XISEG                         
C:   00000000  l__CODE                         
C:   00000000  s_BSEG                          
C:   00000000  s_CABS                          
C:   00000000  s_CABS2                         
C:   00000000  s_DSEG                          
C:   00000000  s_HOME                          
C:   00000000  s_IABS                          
C:   00000000  s_ISEG                          
C:   00000000  s_REG_BANK_0                    
C:   00000000  s_RSEG                          
C:   00000000  s_RSEG0                         
C:   00000000  s_RSEG1                         
C:   00000000  s_XABS                          
C:   00000001  l_BIT_BANK                      
C:   00000001  l_BSEG_BYTES                    
C:   00000001  s_PSEG                          
C:   00000001  s_XSEG                          
C:   00000003  l_GSFINAL                       
C:   00000003  l_GSINIT0                       
C:   00000004  l_OSEG                          
C:   00000006  l_GSINIT4                       
C:   00000008  l_BSEG                          
C:   00000008  l_REG_BANK_0                    
C:   00000008  l_REG_BANK_1                    
C:   00000008  s_REG_BANK_1                    
C:   0000000A  l_GSINIT2                       
C:   00000010  s_REG_BANK_2                    
C:   00000018  s_REG_BANK_3                    
C:   00000019  s_OSEG                          
C:   00000020  s_BSEG_BYTES                    
C:   00000020  s__CODE                         
C:   00000021  s_BIT_BANK                      
C:   00000075  s_SSEG                          
C:   0000007D  l_DSEG                          
C:   00000080  l_CABS2                         
ASxxxx Linker V03.00 + NoICE + sdld,  page 2.
Hexadecimal  [32-Bits]

Area                                    Addr        Size        Decimal Bytes (Attributes)
--------------------------------        ----        ----        ------- ----- ------------
CABS2                               00000000    00000080 =         128. bytes (ABS,CON,CODE)

      Value  Global                              Global Defined In Module
      -----  --------------------------------   ------------------------
C:   0000008B  l_SSEG                          
C:   000000AF  l_HOME                          
C:   000000AF  s_GSINIT0                       
C:   000000B2  s_GSINIT1                       
C:   000000B2  s_GSINIT2                       
C:   000000BC  s_GSINIT3                       
C:   000000BC  s_GSINIT4                       
C:   000000C2  s_GSINIT                        
C:   000000C2  s_GSINIT5                       
C:   00000100  l_IRAM                          
C:   00000191  l_XSEG                          
C:   00000192  s_XISEG                         
C:   0000043C  l_GSINIT                        
C:   000004FE  s_GSFINAL                       
C:   00000501  s_CSEG                          
C:   000007C3  l_CONST                         
C:   0000322D  l_CSEG                          
C:   00003700  _gpcEEPROM                         main
C:   0000380A  s_CONST                         
C:   00003FCD  s_XINIT                         

ASxxxx Linker V03.00 + NoICE + sdld,  page 3.
Hexadecimal  [32-Bits]

Area                                    Addr        Size        Decimal Bytes (Attributes)
--------------------------------        ----        ----        ------- ----- ------------
.  .ABS.                            00000000    00000000 =           0. bytes (ABS,CON)

      Value  Global                              Global Defined In Module
      -----  --------------------------------   ------------------------
     00000000  .__.ABS.                           _gptrget
     00000080  _MOSI                              uart
     00000080  _P0                                uart
     00000080  _P00                               uart
     00000081  _MISO                              uart
     00000081  _P01                               uart
     00000081  _SP                                uart
     00000082  _DPL                               uart
     00000082  _P02                               uart
     00000082  _RXD_1                             uart
     00000083  _DPH                               uart
     00000083  _P03                               uart
     00000084  _P04                               uart
     00000084  _RCTRIM0                           uart
     00000084  _STADC                             uart
     00000085  _P05                               uart
     00000085  _RCTRIM1                           uart
     00000086  _P06                               uart
     00000086  _RWK                               uart
     00000086  _TXD                               uart
     00000087  _P07                               uart
     00000087  _PCON                              uart
     00000087  _RXD                               uart
     00000088  _IT0                               uart
     00000088  _TCON                              uart
     00000089  _IE0                               uart
     00000089  _TMOD                              uart
     0000008A  _IT1                               uart
     0000008A  _TL0                               uart
     0000008B  _IE1                               uart
     0000008B  _TL1                               uart
     0000008C  _TH0                               uart
     0000008C  _TR0                               uart
     0000008D  _TF0                               uart
     0000008D  _TH1                               uart
     0000008E  _CKCON                             uart
     0000008E  _TR1                               uart
     0000008F  _TF1                               uart
     0000008F  _WKCON                             uart
     00000090  _P1                                uart
     00000090  _P10                               uart
     00000091  _P11                               uart
     00000091  _SFRS                              uart
     00000092  _CAPCON0                           uart
     00000092  _P12                               uart
     00000093  _CAPCON1                           uart
     00000093  _P13                               uart
     00000093  _SCL                               uart
     00000094  _CAPCON2                           uart
     00000094  _P14                               uart
ASxxxx Linker V03.00 + NoICE + sdld,  page 4.
Hexadecimal  [32-Bits]

Area                                    Addr        Size        Decimal Bytes (Attributes)
--------------------------------        ----        ----        ------- ----- ------------
.  .ABS.                            00000000    00000000 =           0. bytes (ABS,CON)

      Value  Global                              Global Defined In Module
      -----  --------------------------------   ------------------------
     00000094  _SDA                               uart
     00000095  _CKDIV                             uart
     00000095  _P15                               uart
     00000096  _CKSWT                             uart
     00000096  _P16                               uart
     00000096  _TXD_1                             uart
     00000097  _CKEN                              uart
     00000097  _P17                               uart
     00000098  _RI                                uart
     00000098  _SCON                              uart
     00000099  _SBUF                              uart
     00000099  _TI                                uart
     0000009A  _RB8                               uart
     0000009A  _SBUF_1                            uart
     0000009B  _EIE                               uart
     0000009B  _TB8                               uart
     0000009C  _EIE1                              uart
     0000009C  _REN                               uart
     0000009D  _SM2                               uart
     0000009E  _SM1                               uart
     0000009F  _CHPCON                            uart
     0000009F  _FE                                uart
     0000009F  _SM0                               uart
     000000A0  _P2                                uart
     000000A0  _P20                               uart
     000000A2  _AUXR1                             uart
     000000A3  _BODCON0                           uart
     000000A4  _IAPTRG                            uart
     000000A5  _IAPUEN                            uart
     000000A6  _IAPAL                             uart
     000000A7  _IAPAH                             uart
     000000A8  _EX0                               uart
     000000A8  _IE                                uart
     000000A9  _ET0                               uart
     000000A9  _SADDR                             uart
     000000AA  _EX1                               uart
     000000AA  _WDCON                             uart
     000000AB  _BODCON1                           uart
     000000AB  _ET1                               uart
     000000AC  _ES                                uart
     000000AC  _P3M1                              uart
     000000AC  _P3S                               uart
     000000AD  _EBOD                              uart
     000000AD  _P3M2                              uart
     000000AD  _P3SR                              uart
     000000AE  _EADC                              uart
     000000AE  _IAPFD                             uart
     000000AF  _EA                                uart
     000000AF  _IAPCN                             uart
     000000B0  _P3                                uart
     000000B0  _P30                               uart
ASxxxx Linker V03.00 + NoICE + sdld,  page 5.
Hexadecimal  [32-Bits]

Area                                    Addr        Size        Decimal Bytes (Attributes)
--------------------------------        ----        ----        ------- ----- ------------
.  .ABS.                            00000000    00000000 =           0. bytes (ABS,CON)

      Value  Global                              Global Defined In Module
      -----  --------------------------------   ------------------------
     000000B1  _P0M1                              uart
     000000B1  _P0S                               uart
     000000B2  _P0M2                              uart
     000000B2  _P0SR                              uart
     000000B3  _P1M1                              uart
     000000B3  _P1S                               uart
     000000B4  _P1M2                              uart
     000000B4  _P1SR                              uart
     000000B5  _P2S                               uart
     000000B7  _IPH                               uart
     000000B7  _PWMINTC                           uart
     000000B8  _IP                                uart
     000000B8  _PX0                               uart
     000000B9  _PT0                               uart
     000000B9  _SADEN                             uart
     000000BA  _PX1                               uart
     000000BA  _SADEN_1                           uart
     000000BB  _PT1                               uart
     000000BB  _SADDR_1                           uart
     000000BC  _I2DAT                             uart
     000000BC  _PS                                uart
     000000BD  _I2STAT                            uart
     000000BD  _PBOD                              uart
     000000BE  _I2CLK                             uart
     000000BE  _PADC                              uart
     000000BF  _I2TOC                             uart
     000000C0  _I2CON                             uart
     000000C0  _I2CPX                             uart
     000000C1  _I2ADDR                            uart
     000000C2  _AA                                uart
     000000C2  _ADCRL                             uart
     000000C3  _ADCRH                             uart
     000000C3  _SI                                uart
     000000C4  _PWM4H                             uart
     000000C4  _STO                               uart
     000000C4  _T3CON                             uart
     000000C5  _PWM5H                             uart
     000000C5  _RL3                               uart
     000000C5  _STA                               uart
     000000C6  _I2CEN                             uart
     000000C6  _PIOCON1                           uart
     000000C6  _RH3                               uart
     000000C7  _TA                                uart
     000000C8  _CM_RL2                            uart
     000000C8  _T2CON                             uart
     000000C9  _T2MOD                             uart
     000000CA  _RCMP2L                            uart
     000000CA  _TR2                               uart
     000000CB  _RCMP2H                            uart
     000000CC  _PWM4L                             uart
     000000CC  _TL2                               uart
ASxxxx Linker V03.00 + NoICE + sdld,  page 6.
Hexadecimal  [32-Bits]

Area                                    Addr        Size        Decimal Bytes (Attributes)
--------------------------------        ----        ----        ------- ----- ------------
.  .ABS.                            00000000    00000000 =           0. bytes (ABS,CON)

      Value  Global                              Global Defined In Module
      -----  --------------------------------   ------------------------
     000000CD  _PWM5L                             uart
     000000CD  _TH2                               uart
     000000CE  _ADCMPL                            uart
     000000CF  _ADCMPH                            uart
     000000CF  _TF2                               uart
     000000D0  _P                                 uart
     000000D0  _PSW                               uart
     000000D1  _PWMPH                             uart
     000000D2  _OV                                uart
     000000D2  _PWM0H                             uart
     000000D3  _PWM1H                             uart
     000000D3  _RS0                               uart
     000000D4  _PWM2H                             uart
     000000D4  _RS1                               uart
     000000D5  _F0                                uart
     000000D5  _PWM3H                             uart
     000000D6  _AC                                uart
     000000D6  _PNP                               uart
     000000D7  _CY                                uart
     000000D7  _FBD                               uart
     000000D8  _PWMCON0                           uart
     000000D9  _PWMPL                             uart
     000000DA  _PWM0L                             uart
     000000DB  _PWM1L                             uart
     000000DC  _CLRPWM                            uart
     000000DC  _PWM2L                             uart
     000000DD  _PWM3L                             uart
     000000DD  _PWMF                              uart
     000000DE  _LOAD                              uart
     000000DE  _PIOCON0                           uart
     000000DF  _PWMCON1                           uart
     000000DF  _PWMRUN                            uart
     000000E0  _ACC                               uart
     000000E1  _ADCCON1                           uart
     000000E2  _ADCCON2                           uart
     000000E3  _ADCDLY                            uart
     000000E4  _C0L                               uart
     000000E5  _C0H                               uart
     000000E6  _C1L                               uart
     000000E7  _C1H                               uart
     000000E8  _ADCCON0                           uart
     000000E8  _ADCHS0                            uart
     000000E9  _ADCHS1                            uart
     000000E9  _PICON                             uart
     000000EA  _ADCHS2                            uart
     000000EA  _PINEN                             uart
     000000EB  _ADCHS3                            uart
     000000EB  _PIPEN                             uart
     000000EC  _ETGSEL0                           uart
     000000EC  _PIF                               uart
     000000ED  _C2L                               uart
ASxxxx Linker V03.00 + NoICE + sdld,  page 7.
Hexadecimal  [32-Bits]

Area                                    Addr        Size        Decimal Bytes (Attributes)
--------------------------------        ----        ----        ------- ----- ------------
.  .ABS.                            00000000    00000000 =           0. bytes (ABS,CON)

      Value  Global                              Global Defined In Module
      -----  --------------------------------   ------------------------
     000000ED  _ETGSEL1                           uart
     000000EE  _ADCS                              uart
     000000EE  _C2H                               uart
     000000EF  _ADCF                              uart
     000000EF  _EIP                               uart
     000000F0  _B                                 uart
     000000F1  _CAPCON3                           uart
     000000F2  _CAPCON4                           uart
     000000F3  _SPCR                              uart
     000000F3  _SPCR2                             uart
     000000F4  _SPSR                              uart
     000000F5  _B_5                               _gptrget
     000000F5  _SPDR                              uart
     000000F6  _AINDIDS                           uart
     000000F6  _B_6                               _gptrget
     000000F7  _B_7                               _gptrget
     000000F7  _EIPH                              uart
     000000F8  _RI_1                              uart
     000000F8  _SCON_1                            uart
     000000F9  _PDTEN                             uart
     000000F9  _TI_1                              uart
     000000FA  _PDTCNT                            uart
     000000FA  _RB8_1                             uart
     000000FB  _PMEN                              uart
     000000FB  _TB8_1                             uart
     000000FC  _PMD                               uart
     000000FC  _REN_1                             uart
     000000FD  _SM2_1                             uart
     000000FE  _EIP1                              uart
     000000FE  _SM1_1                             uart
     000000FF  _EIPH1                             uart
     000000FF  _FE_1                              uart
     000000FF  _SM0_1                             uart

ASxxxx Linker V03.00 + NoICE + sdld,  page 8.
Hexadecimal  [32-Bits]

Area                                    Addr        Size        Decimal Bytes (Attributes)
--------------------------------        ----        ----        ------- ----- ------------
BSEG_BYTES                          00000020    00000001 =           1. bytes (REL,CON)

      Value  Global                              Global Defined In Module
      -----  --------------------------------   ------------------------
ASxxxx Linker V03.00 + NoICE + sdld,  page 9.
Hexadecimal  [32-Bits]

Area                                    Addr        Size        Decimal Bytes (Attributes)
--------------------------------        ----        ----        ------- ----- ------------
REG_BANK_0                          00000000    00000008 =           8. bytes (REL,OVR)

      Value  Global                              Global Defined In Module
      -----  --------------------------------   ------------------------
ASxxxx Linker V03.00 + NoICE + sdld,  page 10.
Hexadecimal  [32-Bits]

Area                                    Addr        Size        Decimal Bytes (Attributes)
--------------------------------        ----        ----        ------- ----- ------------
REG_BANK_1                          00000008    00000008 =           8. bytes (REL,OVR)

      Value  Global                              Global Defined In Module
      -----  --------------------------------   ------------------------
ASxxxx Linker V03.00 + NoICE + sdld,  page 11.
Hexadecimal  [32-Bits]

Area                                    Addr        Size        Decimal Bytes (Attributes)
--------------------------------        ----        ----        ------- ----- ------------
BIT_BANK                            00000021    00000001 =           1. bytes (REL,OVR)

      Value  Global                              Global Defined In Module
      -----  --------------------------------   ------------------------
ASxxxx Linker V03.00 + NoICE + sdld,  page 12.
Hexadecimal  [32-Bits]

Area                                    Addr        Size        Decimal Bytes (Attributes)
--------------------------------        ----        ----        ------- ----- ------------
DSEG                                00000000    0000007D =         125. bytes (REL,CON)

      Value  Global                              Global Defined In Module
      -----  --------------------------------   ------------------------
     00000010  _Write_APROM_BYTE_PARM_2           eeprom_iap
     00000011  _gu8UART                           uart
     00000018  _bp                                _bp
     00000022  _gu8MyAddr                         main
     00000023  _state_machine_PARM_2              main
     00000024  _state_machine_PARM_3              main
     00000025  _state_machine_PARM_4              main
     00000029  _set_uplink_test_mode_PARM_2       main
     00000031  _i2c_address_bitbanging_PARM_2     main
     00000032  _i2c_write_bytes_bitbannging_PAR   main
     00000033  _i2c_write_bytes_bitbannging_PAR   main
     00000036  _i2c_read_bytes_bitbannging_PARM   main
     00000037  _i2c_read_bytes_bitbannging_PARM   main
     0000003A  _i2c_read_bytes_cs_bitbannging_P   main
     0000003B  _i2c_read_bytes_cs_bitbannging_P   main
     0000003E  _calc_temp_PARM_2                  main
     0000005F  _gu16Cnt                           linefi_packet
     00000061  _cp_buf2linefipacket_PARM_2        linefi_packet
     00000064  _cp_buf2linefipacket_PARM_3        linefi_packet
     00000072  _print_raw_packet_PARM_2           linefi_packet

ASxxxx Linker V03.00 + NoICE + sdld,  page 13.
Hexadecimal  [32-Bits]

Area                                    Addr        Size        Decimal Bytes (Attributes)
--------------------------------        ----        ----        ------- ----- ------------
OSEG                                00000019    00000004 =           4. bytes (REL,OVR)

      Value  Global                              Global Defined In Module
      -----  --------------------------------   ------------------------
     00000019  __divslong_PARM_2                  _divulong
     00000019  __divulong_PARM_2                  _divulong
     00000019  __gptrput_PARM_2                   _gptrput
     00000019  __mullong_PARM_2                   _mullong
     00000019  _chk_my_addr_PARM_2                main
     00000019  _crc8_PARM_2                       linefi_packet
     00000019  _getstr_uart0_PARM_2               uart
     00000019  _getstr_uart1_PARM_2               uart
     00000019  _iap_cmd_PARM_2                    eeprom_iap
     0000001A  _crc8_PARM_3                       linefi_packet
     0000001A  _iap_cmd_PARM_3                    eeprom_iap
     0000001B  _iap_cmd_PARM_4                    eeprom_iap
     0000001C  _iap_cmd_PARM_5                    eeprom_iap

ASxxxx Linker V03.00 + NoICE + sdld,  page 14.
Hexadecimal  [32-Bits]

Area                                    Addr        Size        Decimal Bytes (Attributes)
--------------------------------        ----        ----        ------- ----- ------------
SSEG                                00000075    0000008B =         139. bytes (REL,OVR)

      Value  Global                              Global Defined In Module
      -----  --------------------------------   ------------------------
     00000075  __start__stack                     main

ASxxxx Linker V03.00 + NoICE + sdld,  page 15.
Hexadecimal  [32-Bits]

Area                                    Addr        Size        Decimal Bytes (Attributes)
--------------------------------        ----        ----        ------- ----- ------------
XSEG                                00000001    00000191 =         401. bytes (REL,CON,XDATA)

      Value  Global                              Global Defined In Module
      -----  --------------------------------   ------------------------
D:   00000001  _gu8PPambleDurHNum                 main
D:   00000002  _gu8PPambleDurLNum                 main
D:   00000003  _gu8PPambleNum                     main
D:   00000005  _gu8LineFiUpRate                   main
D:   00000006  _gu8DurMode                        main
D:   00000007  _gu8TxCnt                          main
D:   00000008  _gu8DurModeMax                     main
D:   00000009  _gpu8Data                          main
D:   0000001D  _gu8MotorState                     main
D:   0000001E  _gu8ULTestMode                     main
D:   0000001F  _gu8UpLinkTxState                  main
D:   00000020  _gu8PPambleDurCnt                  main
D:   00000021  _gu8PPambleCnt                     main
D:   00000023  _gu8ULTestData                     main
D:   00000024  _gu8RateIdx                        main
D:   00000025  _gpu8Data2                         main
D:   00000039  _gppcULTestMode                    main
D:   00000048  _gpu32UartSpeed                    main
D:   00000080  _gpu16RxTime                       main
D:   000000A8  _gu16TimeCnt                       main
D:   000000AA  _gu32TimeCnt                       main
D:   000000D6  _gpcTypeStr                        linefi_packet
D:   0000012A  _gu8BNFCnt                         uart
D:   0000012B  _gu8BFCnt                          uart
D:   0000012C  _gu8BNECnt                         uart
D:   0000012D  _gu8BECnt                          uart
D:   0000012E  _gpc2B2MC                          uart
D:   00000132  _gpcMC22B                          uart
D:   00000142  _pu8UartRx0Buf                     uart
D:   00000152  _pu8UartTx0Buf                     uart
D:   00000162  _pu8UartRx1Buf                     uart
D:   00000172  _pu8UartTx1Buf                     uart
D:   00000182  _gu8Rx0Size                        uart
D:   00000183  _gu8Rx0RIdx                        uart
D:   00000184  _gu8Rx0WIdx                        uart
D:   00000185  _gu8Tx0Size                        uart
D:   00000186  _gu8Tx0RIdx                        uart
D:   00000187  _gu8Tx0WIdx                        uart
D:   00000188  _gu8Rx1Size                        uart
D:   00000189  _gu8Rx1RIdx                        uart
D:   0000018A  _gu8Rx1WIdx                        uart
D:   0000018B  _gu8Tx1Size                        uart
D:   0000018C  _gu8Tx1RIdx                        uart
D:   0000018D  _gu8Tx1WIdx                        uart
D:   0000018E  _gu8Uart0RCnt                      uart
D:   0000018F  _gu8Uart0TCnt                      uart
D:   00000190  _gu8Uart1RCnt                      uart
D:   00000191  _gu8Uart1TCnt                      uart
ASxxxx Linker V03.00 + NoICE + sdld,  page 16.
Hexadecimal  [32-Bits]

Area                                    Addr        Size        Decimal Bytes (Attributes)
--------------------------------        ----        ----        ------- ----- ------------
HOME                                00000000    000000AF =         175. bytes (REL,CON,CODE)

      Value  Global                              Global Defined In Module
      -----  --------------------------------   ------------------------
C:   0000007E  __sdcc_program_startup             main
C:   00000081  ___gptr_cmp                        

ASxxxx Linker V03.00 + NoICE + sdld,  page 17.
Hexadecimal  [32-Bits]

Area                                    Addr        Size        Decimal Bytes (Attributes)
--------------------------------        ----        ----        ------- ----- ------------
GSINIT0                             000000AF    00000003 =           3. bytes (REL,CON,CODE)

      Value  Global                              Global Defined In Module
      -----  --------------------------------   ------------------------
C:   000000AF  __sdcc_gsinit_startup              

ASxxxx Linker V03.00 + NoICE + sdld,  page 18.
Hexadecimal  [32-Bits]

Area                                    Addr        Size        Decimal Bytes (Attributes)
--------------------------------        ----        ----        ------- ----- ------------
GSINIT2                             000000B2    0000000A =          10. bytes (REL,CON,CODE)

      Value  Global                              Global Defined In Module
      -----  --------------------------------   ------------------------
ASxxxx Linker V03.00 + NoICE + sdld,  page 19.
Hexadecimal  [32-Bits]

Area                                    Addr        Size        Decimal Bytes (Attributes)
--------------------------------        ----        ----        ------- ----- ------------
GSINIT4                             000000BC    00000006 =           6. bytes (REL,CON,CODE)

      Value  Global                              Global Defined In Module
      -----  --------------------------------   ------------------------
C:   000000BC  __mcs51_genRAMCLEAR                

ASxxxx Linker V03.00 + NoICE + sdld,  page 20.
Hexadecimal  [32-Bits]

Area                                    Addr        Size        Decimal Bytes (Attributes)
--------------------------------        ----        ----        ------- ----- ------------
GSINIT                              000000C2    0000043C =        1084. bytes (REL,CON,CODE)

      Value  Global                              Global Defined In Module
      -----  --------------------------------   ------------------------
ASxxxx Linker V03.00 + NoICE + sdld,  page 21.
Hexadecimal  [32-Bits]

Area                                    Addr        Size        Decimal Bytes (Attributes)
--------------------------------        ----        ----        ------- ----- ------------
GSFINAL                             000004FE    00000003 =           3. bytes (REL,CON,CODE)

      Value  Global                              Global Defined In Module
      -----  --------------------------------   ------------------------
ASxxxx Linker V03.00 + NoICE + sdld,  page 22.
Hexadecimal  [32-Bits]

Area                                    Addr        Size        Decimal Bytes (Attributes)
--------------------------------        ----        ----        ------- ----- ------------
CSEG                                00000501    0000322D =       12845. bytes (REL,CON,CODE)

      Value  Global                              Global Defined In Module
      -----  --------------------------------   ------------------------
C:   00000501  _print_esc                         main
C:   00000570  _print_char                        main
C:   000005A3  _state_machine                     main
C:   0000066D  _Timer0_ISR                        main
C:   000006A6  _pin_interrupt_isr                 main
C:   000006B0  _MODIFY_HIRC_166                   main
C:   000006FC  _disp_help                         main
C:   0000082A  _gpio_setup                        main
C:   0000089B  _ctrl_rgbled_motor                 main
C:   000008FF  _chk_my_addr                       main
C:   0000091D  _process_my_packet                 main
C:   00000A3C  _set_uplink_test_mode              main
C:   00000A7F  _process_all_packet                main
C:   00000CDB  _get_uart0_char_nb                 main
C:   00000CDE  _i2c_setup                         main
C:   00000CF2  _i2c_write_bitbanging              main
C:   00000D27  _i2c_read_bitbanging               main
C:   00000D5E  _i2c_address_bitbanging            main
C:   00000D6B  _i2c_write_bytes_bitbannging       main
C:   00000D9D  _i2c_read_bytes_bitbannging        main
C:   00000DDC  _i2c_read_bytes_cs_bitbannging     main
C:   00000E22  _calc_temp                         main
C:   00000E7E  _delay_nop                         main
C:   00000EA3  _main                              main
C:   00001FA3  __sdcc_external_startup            Common
C:   00001FB9  _Timer0_Delay100us                 Delay
C:   00001FEB  _Timer0_Delay1ms                   Delay
C:   0000201D  _Timer1_Delay10ms                  Delay
C:   0000204F  _Timer2_Delay500us                 Delay
C:   00002084  _Timer3_Delay100ms                 Delay
C:   000020C0  _Timer3_Delay10us                  Delay
C:   000020FC  _iap_cmd                           eeprom_iap
C:   00002171  _Erase_APROM_Page                  eeprom_iap
C:   00002185  _Write_APROM_BYTE                  eeprom_iap
C:   00002199  _read_bandgap_value                eeprom_iap
C:   000021F4  _read_uid                          eeprom_iap
C:   0000221D  _size_linefi_packet                linefi_packet
C:   00002238  _calc_crc_linefi_packet_packet     linefi_packet
C:   0000229C  _add_crc_linefi_packet_packet      linefi_packet
C:   000022C4  _chk_crc_linefi_packet_packet      linefi_packet
C:   000022F6  _get_octet_from_linefi             linefi_packet
C:   000022F9  _send_octet_to_linefi              linefi_packet
C:   000022FC  _send_linefi_packet                linefi_packet
C:   0000246A  _cp_buf2linefipacket               linefi_packet
C:   000025FC  _print_linefipacket                linefi_packet
C:   00002834  _get_timer_value                   linefi_packet
C:   0000288A  _get_bktimer_value                 linefi_packet
C:   000028E0  _crc8                              linefi_packet
C:   00002910  _print_raw_packet                  linefi_packet
C:   00002A1C  _sht75_crc_table                   linefi_packet
ASxxxx Linker V03.00 + NoICE + sdld,  page 23.
Hexadecimal  [32-Bits]

Area                                    Addr        Size        Decimal Bytes (Attributes)
--------------------------------        ----        ----        ------- ----- ------------
CSEG                                00000501    0000322D =       12845. bytes (REL,CON,CODE)

      Value  Global                              Global Defined In Module
      -----  --------------------------------   ------------------------
C:   00002B1C  _packet_gen_table                  linefi_packet
C:   00002BE4  _InitialUART0_Timer1               uart
C:   00002C24  _InitialUART0_Timer3               uart
C:   00002C75  _InitialUART1_Timer3               uart
C:   00002CC1  _set_linefi_uplink_speed           uart
C:   00002CC4  _putchar                           uart
C:   00002CDA  _uart_setup                        uart
C:   00002CF6  _Uart0Tx_ISR                       uart
C:   00002D41  _SerialPort0_ISR                   uart
C:   00002DCE  _chkchar_uart0                     uart
C:   00002DD5  _getchar_uart0                     uart
C:   00002E1A  _getstr_uart0                      uart
C:   00002E74  _Uart1Tx_ISR                       uart
C:   00002EA2  _SerialPort1_ISR                   uart
C:   00002F2F  _chkchar_uart1                     uart
C:   00002F36  _getchar_uart1                     uart
C:   00002F7D  _getstr_uart1                      uart
C:   00002FD7  _putchar_uart0                     uart
C:   00003010  _putchar_uart1                     uart
C:   00003070  _preamble                          uart
C:   00003079  _putchar_manchester                uart
C:   00003103  _chk_manchester                    uart
C:   00003137  _conv_manchester2nibble            uart
C:   00003160  _printf_fast_f                     printf_fast_f
C:   000035E1  __divulong                         _divulong
C:   00003646  fs_rshift_a                        _fsrshift
C:   00003689  __gptrput                          _gptrput
C:   00003780  __mullong                          _mullong
C:   00003780  __mullong_dummy                    _mullong
C:   000037EE  __gptrget                          _gptrget

ASxxxx Linker V03.00 + NoICE + sdld,  page 24.
Hexadecimal  [32-Bits]

Area                                    Addr        Size        Decimal Bytes (Attributes)
--------------------------------        ----        ----        ------- ----- ------------
CONST                               0000380A    000007C3 =        1987. bytes (REL,CON,CODE)

      Value  Global                              Global Defined In Module
      -----  --------------------------------   ------------------------
ASxxxx Linker V03.00 + NoICE + sdld,  page 25.

Files Linked                              [ module(s) ]

obj/main.c.rel                            [  ]
obj/Common.c.rel                          [  ]
obj/Delay.c.rel                           [  ]
obj/eeprom_iap.c.rel                      [  ]
obj/linefi_packet.c.rel                   [  ]
obj/uart.c.rel                            [  ]


Libraries Linked                          [ object file ]

/usr/bin/../share/sdcc/lib/small/libsdcc.lib
                                          [ printf_fast_f.rel ]
/usr/bin/../share/sdcc/lib/small/liblong.lib
                                          [ _divulong.rel ]
/usr/bin/../share/sdcc/lib/small/mcs51.lib
                                          [ crtclear.rel ]
/usr/bin/../share/sdcc/lib/small/libfloat.lib
                                          [ _fsrshift.rel ]
/usr/bin/../share/sdcc/lib/small/libsdcc.lib
                                          [ _gptrput.rel ]
/usr/bin/../share/sdcc/lib/small/liblong.lib
                                          [ _mullong.rel ]
/usr/bin/../share/sdcc/lib/small/libsdcc.lib
                                          [ _bp.rel ]
/usr/bin/../share/sdcc/lib/small/mcs51.lib
                                          [ gptr_cmp.rel ]
/usr/bin/../share/sdcc/lib/small/mcs51.lib
                                          [ crtstart.rel ]
/usr/bin/../share/sdcc/lib/small/libsdcc.lib
                                          [ _gptrget.rel ]

ASxxxx Linker V03.00 + NoICE + sdld,  page 26.

User Base Address Definitions

HOME = 0x0000
XSEG = 0x0001
PSEG = 0x0001
ISEG = 0x0000
BSEG = 0x0000

